target datalayout = "e-m:e-p270:32:32-p271:32:32-p272:64:64-i64:64-i128:128-f80:128-n8:16:32:64-S128"
target triple = "x86_64-pc-linux-gnu"

%class.Phase = type { i32, ptr }
%class.C2Access = type <{ ptr, i64, i8, [7 x i8], ptr, ptr, ptr, i8, [7 x i8] }>
%class.C2AccessValue = type { ptr, ptr }
%class.C2ParseAccess = type { %class.C2Access.base, ptr }
%class.C2Access.base = type <{ ptr, i64, i8, [7 x i8], ptr, ptr, ptr, i8 }>
%class.C2AtomicParseAccess = type <{ %class.C2ParseAccess, ptr, i32, [4 x i8] }>
%class.GraphKit = type <{ ptr, %class.Phase, ptr, ptr, ptr, ptr, i32, [4 x i8], ptr, ptr, i32, [4 x i8] }>
%class.Node = type <{ ptr, ptr, ptr, i32, i32, i32, i32, i32, i32, i32, [4 x i8] }>

; Function Attrs: mustprogress nounwind uwtable
define linkonce_odr hidden noundef ptr @_ZNK4Node2inEj(ptr noundef nonnull align 8 dereferenceable(52) %0, i32 noundef %1) #1 comdat align 2 {
  %3 = alloca ptr, align 8
  %4 = alloca i32, align 4
  store ptr %0, ptr %3, align 8
  store i32 %1, ptr %4, align 4
  %5 = load ptr, ptr %3, align 8
  %6 = getelementptr inbounds %class.Node, ptr %5, i32 0, i32 1
  %7 = load ptr, ptr %6, align 8
  %8 = load i32, ptr %4, align 4
  %9 = zext i32 %8 to i64
  %10 = getelementptr inbounds ptr, ptr %7, i64 %9
  %11 = load ptr, ptr %10, align 8
  ret ptr %11
}

; Function Attrs: mustprogress nounwind uwtable
define linkonce_odr hidden noundef ptr @_ZNK13SafePointNode7controlEv(ptr noundef nonnull align 8 dereferenceable(81) %0) #1 comdat align 2 {
  %2 = alloca ptr, align 8
  store ptr %0, ptr %2, align 8
  %3 = load ptr, ptr %2, align 8
  %4 = call noundef ptr @_ZNK4Node2inEj(ptr noundef nonnull align 8 dereferenceable(52) %3, i32 noundef 0)
  ret ptr %4
}

; Function Attrs: mustprogress nounwind uwtable
define linkonce_odr hidden noundef ptr @_ZNK8GraphKit12map_not_nullEv(ptr noundef nonnull align 8 dereferenceable(84) %0) #1 comdat align 2 {
  %2 = alloca ptr, align 8
  store ptr %0, ptr %2, align 8
  %3 = load ptr, ptr %2, align 8
  %4 = getelementptr inbounds %class.GraphKit, ptr %3, i32 0, i32 4
  %5 = load ptr, ptr %4, align 8
  ret ptr %5
}

; Function Attrs: mustprogress nounwind uwtable
define linkonce_odr hidden noundef zeroext i1 @_Z17is_reference_type9BasicTypeb(i8 noundef zeroext %0, i1 noundef zeroext %1) #1 comdat {
  %3 = alloca i8, align 1
  %4 = alloca i8, align 1
  store i8 %0, ptr %3, align 1
  %5 = zext i1 %1 to i8
  store i8 %5, ptr %4, align 1
  %6 = load i8, ptr %3, align 1
  %7 = zext i8 %6 to i32
  %8 = icmp eq i32 %7, 12
  br i1 %8, label %22, label %9

9:                                                ; preds = %2
  %10 = load i8, ptr %3, align 1
  %11 = zext i8 %10 to i32
  %12 = icmp eq i32 %11, 13
  br i1 %12, label %22, label %13

13:                                               ; preds = %9
  %14 = load i8, ptr %4, align 1
  %15 = trunc i8 %14 to i1
  br i1 %15, label %16, label %20

16:                                               ; preds = %13
  %17 = load i8, ptr %3, align 1
  %18 = zext i8 %17 to i32
  %19 = icmp eq i32 %18, 16
  br label %20

20:                                               ; preds = %16, %13
  %21 = phi i1 [ false, %13 ], [ %19, %16 ]
  br label %22

22:                                               ; preds = %20, %9, %2
  %23 = phi i1 [ true, %9 ], [ true, %2 ], [ %21, %20 ]
  ret i1 %23
}

; Function Attrs: mustprogress nounwind uwtable
define linkonce_odr hidden noundef i32 @_ZNK19C2AtomicParseAccess9alias_idxEv(ptr noundef nonnull align 8 dereferenceable(76) %0) #1 comdat align 2 {
  %2 = alloca ptr, align 8
  store ptr %0, ptr %2, align 8
  %3 = load ptr, ptr %2, align 8
  %4 = getelementptr inbounds %class.C2AtomicParseAccess, ptr %3, i32 0, i32 2
  %5 = load i32, ptr %4, align 8
  ret i32 %5
}

; Function Attrs: mustprogress nounwind uwtable
define linkonce_odr hidden noundef ptr @_ZNK13C2AccessValue4nodeEv(ptr noundef nonnull align 8 dereferenceable(16) %0) #1 comdat align 2 {
  %2 = alloca ptr, align 8
  store ptr %0, ptr %2, align 8
  %3 = load ptr, ptr %2, align 8
  %4 = getelementptr inbounds %class.C2AccessValue, ptr %3, i32 0, i32 0
  %5 = load ptr, ptr %4, align 8
  ret ptr %5
}

; Function Attrs: mustprogress nounwind uwtable
define linkonce_odr hidden noundef nonnull align 8 dereferenceable(16) ptr @_ZNK8C2Access4addrEv(ptr noundef nonnull align 8 dereferenceable(49) %0) #1 comdat align 2 {
  %2 = alloca ptr, align 8
  store ptr %0, ptr %2, align 8
  %3 = load ptr, ptr %2, align 8
  %4 = getelementptr inbounds %class.C2Access, ptr %3, i32 0, i32 5
  %5 = load ptr, ptr %4, align 8
  ret ptr %5
}

; Function Attrs: mustprogress nounwind uwtable
define linkonce_odr hidden noundef ptr @_ZNK8C2Access4baseEv(ptr noundef nonnull align 8 dereferenceable(49) %0) #1 comdat align 2 {
  %2 = alloca ptr, align 8
  store ptr %0, ptr %2, align 8
  %3 = load ptr, ptr %2, align 8
  %4 = getelementptr inbounds %class.C2Access, ptr %3, i32 0, i32 4
  %5 = load ptr, ptr %4, align 8
  ret ptr %5
}

; Function Attrs: mustprogress nounwind uwtable
define linkonce_odr hidden noundef ptr @_ZNK8C2Access10raw_accessEv(ptr noundef nonnull align 8 dereferenceable(49) %0) #1 comdat align 2 {
  %2 = alloca ptr, align 8
  store ptr %0, ptr %2, align 8
  %3 = load ptr, ptr %2, align 8
  %4 = getelementptr inbounds %class.C2Access, ptr %3, i32 0, i32 6
  %5 = load ptr, ptr %4, align 8
  ret ptr %5
}

; Function Attrs: mustprogress nounwind uwtable
define linkonce_odr hidden noundef ptr @_ZNK8GraphKit7controlEv(ptr noundef nonnull align 8 dereferenceable(84) %0) #1 comdat align 2 {
  %2 = alloca ptr, align 8
  store ptr %0, ptr %2, align 8
  %3 = load ptr, ptr %2, align 8
  %4 = call noundef ptr @_ZNK8GraphKit12map_not_nullEv(ptr noundef nonnull align 8 dereferenceable(84) %3)
  %5 = call noundef ptr @_ZNK13SafePointNode7controlEv(ptr noundef nonnull align 8 dereferenceable(81) %4)
  ret ptr %5
}

; Function Attrs: mustprogress nounwind uwtable
define linkonce_odr hidden noundef zeroext i1 @_ZNK8C2Access6is_oopEv(ptr noundef nonnull align 8 dereferenceable(49) %0) #1 comdat align 2 {
  %2 = alloca ptr, align 8
  store ptr %0, ptr %2, align 8
  %3 = load ptr, ptr %2, align 8
  %4 = getelementptr inbounds %class.C2Access, ptr %3, i32 0, i32 2
  %5 = load i8, ptr %4, align 8
  %6 = call noundef zeroext i1 @_Z17is_reference_type9BasicTypeb(i8 noundef zeroext %5, i1 noundef zeroext false)
  ret i1 %6
}

; Function Attrs: mustprogress nounwind uwtable
define linkonce_odr hidden noundef ptr @_ZNK13C2ParseAccess3kitEv(ptr noundef nonnull align 8 dereferenceable(64) %0) #1 comdat align 2 {
  %2 = alloca ptr, align 8
  store ptr %0, ptr %2, align 8
  %3 = load ptr, ptr %2, align 8
  %4 = getelementptr inbounds %class.C2ParseAccess, ptr %3, i32 0, i32 1
  %5 = load ptr, ptr %4, align 8
  ret ptr %5
}

; Function Attrs: mustprogress nounwind uwtable
define hidden noundef ptr @_ZNK18ModRefBarrierSetC223atomic_xchg_at_resolvedER19C2AtomicParseAccessP4NodePK4Type(ptr noundef nonnull align 8 dereferenceable(8) %0, ptr noundef nonnull align 8 dereferenceable(76) %1, ptr noundef %2, ptr noundef %3) unnamed_addr #1 align 2 {
  %5 = alloca ptr, align 8
  %6 = alloca ptr, align 8
  %7 = alloca ptr, align 8
  %8 = alloca ptr, align 8
  %9 = alloca ptr, align 8
  %10 = alloca ptr, align 8
  %11 = alloca ptr, align 8
  store ptr %0, ptr %6, align 8
  store ptr %1, ptr %7, align 8
  store ptr %2, ptr %8, align 8
  store ptr %3, ptr %9, align 8
  %12 = load ptr, ptr %6, align 8
  %13 = load ptr, ptr %7, align 8
  %14 = call noundef ptr @_ZNK13C2ParseAccess3kitEv(ptr noundef nonnull align 8 dereferenceable(64) %13)
  store ptr %14, ptr %10, align 8
  %15 = load ptr, ptr %7, align 8
  %16 = load ptr, ptr %8, align 8
  %17 = load ptr, ptr %9, align 8
  %18 = call noundef ptr @_ZNK12BarrierSetC223atomic_xchg_at_resolvedER19C2AtomicParseAccessP4NodePK4Type(ptr noundef nonnull align 8 dereferenceable(8) %12, ptr noundef nonnull align 8 dereferenceable(76) %15, ptr noundef %16, ptr noundef %17)
  store ptr %18, ptr %11, align 8
  %19 = load ptr, ptr %7, align 8
  %20 = call noundef zeroext i1 @_ZNK8C2Access6is_oopEv(ptr noundef nonnull align 8 dereferenceable(49) %19)
  br i1 %20, label %23, label %21

21:                                               ; preds = %4
  %22 = load ptr, ptr %11, align 8
  store ptr %22, ptr %5, align 8
  br label %48

23:                                               ; preds = %4
  %24 = load ptr, ptr %10, align 8
  %25 = load ptr, ptr %10, align 8
  %26 = call noundef ptr @_ZNK8GraphKit7controlEv(ptr noundef nonnull align 8 dereferenceable(84) %25)
  %27 = load ptr, ptr %11, align 8
  %28 = load ptr, ptr %12, align 8
  %29 = getelementptr inbounds ptr, ptr %28, i64 44
  %30 = load ptr, ptr %29, align 8
  call void %30(ptr noundef nonnull align 8 dereferenceable(8) %12, ptr noundef %24, i1 noundef zeroext false, ptr noundef %26, ptr noundef null, ptr noundef null, i32 noundef -1, ptr noundef null, ptr noundef null, ptr noundef %27, i8 noundef zeroext 12)
  %31 = load ptr, ptr %10, align 8
  %32 = load ptr, ptr %10, align 8
  %33 = call noundef ptr @_ZNK8GraphKit7controlEv(ptr noundef nonnull align 8 dereferenceable(84) %32)
  %34 = load ptr, ptr %7, align 8
  %35 = call noundef ptr @_ZNK8C2Access10raw_accessEv(ptr noundef nonnull align 8 dereferenceable(49) %34)
  %36 = load ptr, ptr %7, align 8
  %37 = call noundef ptr @_ZNK8C2Access4baseEv(ptr noundef nonnull align 8 dereferenceable(49) %36)
  %38 = load ptr, ptr %7, align 8
  %39 = call noundef nonnull align 8 dereferenceable(16) ptr @_ZNK8C2Access4addrEv(ptr noundef nonnull align 8 dereferenceable(49) %38)
  %40 = call noundef ptr @_ZNK13C2AccessValue4nodeEv(ptr noundef nonnull align 8 dereferenceable(16) %39)
  %41 = load ptr, ptr %7, align 8
  %42 = call noundef i32 @_ZNK19C2AtomicParseAccess9alias_idxEv(ptr noundef nonnull align 8 dereferenceable(76) %41)
  %43 = load ptr, ptr %8, align 8
  %44 = load ptr, ptr %12, align 8
  %45 = getelementptr inbounds ptr, ptr %44, i64 45
  %46 = load ptr, ptr %45, align 8
  call void %46(ptr noundef nonnull align 8 dereferenceable(8) %12, ptr noundef %31, ptr noundef %33, ptr noundef %35, ptr noundef %37, ptr noundef %40, i32 noundef %42, ptr noundef %43, i8 noundef zeroext 12, i1 noundef zeroext true)
  %47 = load ptr, ptr %11, align 8
  store ptr %47, ptr %5, align 8
  br label %48

48:                                               ; preds = %23, %21
  %49 = load ptr, ptr %5, align 8
  ret ptr %49
}