; Function Attrs: mustprogress nounwind uwtable
define hidden noundef ptr @_ZNK18ModRefBarrierSetC223atomic_xchg_at_resolvedER19C2AtomicParseAccessP4NodePK4Type(ptr noundef nonnull align 8 dereferenceable(8) %0, ptr noundef nonnull align 8 dereferenceable(76) %1, ptr noundef %2, ptr noundef %3) unnamed_addr #0 align 2 {
  %5 = getelementptr inbounds i8, ptr %1, i64 56
  %6 = load ptr, ptr %5, align 8
  %7 = tail call noundef ptr @_ZNK12BarrierSetC223atomic_xchg_at_resolvedER19C2AtomicParseAccessP4NodePK4Type(ptr noundef nonnull align 8 dereferenceable(8) %0, ptr noundef nonnull align 8 dereferenceable(76) %1, ptr noundef %2, ptr noundef %3) #2
  %8 = getelementptr inbounds i8, ptr %1, i64 16
  %9 = load i8, ptr %8, align 8
  %10 = and i8 %9, -2
  %or.cond.i.i = icmp eq i8 %10, 12
  br i1 %or.cond.i.i, label %11, label %36

11:                                               ; preds = %4
  %12 = getelementptr inbounds i8, ptr %6, i64 40
  %13 = load ptr, ptr %12, align 8
  %14 = getelementptr inbounds i8, ptr %13, i64 8
  %15 = load ptr, ptr %14, align 8
  %16 = load ptr, ptr %15, align 8
  %17 = load ptr, ptr %0, align 8
  %18 = getelementptr inbounds i8, ptr %17, i64 352
  %19 = load ptr, ptr %18, align 8
  tail call void %19(ptr noundef nonnull align 8 dereferenceable(8) %0, ptr noundef nonnull %6, i1 noundef zeroext false, ptr noundef %16, ptr noundef null, ptr noundef null, i32 noundef -1, ptr noundef null, ptr noundef null, ptr noundef %7, i8 noundef zeroext 12) #2
  %20 = load ptr, ptr %12, align 8
  %21 = getelementptr inbounds i8, ptr %20, i64 8
  %22 = load ptr, ptr %21, align 8
  %23 = load ptr, ptr %22, align 8
  %24 = getelementptr inbounds i8, ptr %1, i64 40
  %25 = load ptr, ptr %24, align 8
  %26 = getelementptr inbounds i8, ptr %1, i64 24
  %27 = load ptr, ptr %26, align 8
  %28 = getelementptr inbounds i8, ptr %1, i64 32
  %29 = load ptr, ptr %28, align 8
  %30 = load ptr, ptr %29, align 8
  %31 = getelementptr inbounds i8, ptr %1, i64 72
  %32 = load i32, ptr %31, align 8
  %33 = load ptr, ptr %0, align 8
  %34 = getelementptr inbounds i8, ptr %33, i64 360
  %35 = load ptr, ptr %34, align 8
  tail call void %35(ptr noundef nonnull align 8 dereferenceable(8) %0, ptr noundef nonnull %6, ptr noundef %23, ptr noundef %25, ptr noundef %27, ptr noundef %30, i32 noundef %32, ptr noundef %2, i8 noundef zeroext 12, i1 noundef zeroext true) #2
  br label %36

36:                                               ; preds = %4, %11
  ret ptr %7
}